; Function Attrs: mustprogress uwtable
define void @_ZNK32pxrInternal_v0_24__pxrReserved__17UsdShadeNodeGraph14ConnectableAPIEv(ptr dead_on_unwind noalias writable sret(%"class.pxrInternal_v0_24__pxrReserved__::UsdShadeConnectableAPI") align 8 %0, ptr noundef nonnull align 8 dereferenceable(24) %1) local_unnamed_addr #0 align 2 personality ptr @__gxx_personality_v0 {
  %3 = alloca %"class.pxrInternal_v0_24__pxrReserved__::UsdPrim", align 8
  %4 = getelementptr inbounds nuw i8, ptr %1, i64 8
  %5 = getelementptr inbounds nuw i8, ptr %1, i64 16
  call void @_ZN32pxrInternal_v0_24__pxrReserved__9UsdObjectC2ERKNS_18Usd_PrimDataHandleERKNS_7SdfPathE(ptr noundef nonnull align 8 dereferenceable(32) %3, ptr noundef nonnull align 8 dereferenceable(8) %4, ptr noundef nonnull align 4 dereferenceable(8) %5)
  invoke void @_ZN32pxrInternal_v0_24__pxrReserved__13UsdSchemaBaseC2ERKNS_7UsdPrimE(ptr noundef nonnull align 8 dereferenceable(32) %0, ptr noundef nonnull align 8 dereferenceable(32) %3)
          to label %6 unwind label %41

6:                                                ; preds = %2
  %7 = getelementptr inbounds nuw i8, ptr %0, i64 24
  store ptr null, ptr %7, align 8
  store ptr getelementptr inbounds nuw inrange(-16, 48) (i8, ptr @_ZTVN32pxrInternal_v0_24__pxrReserved__22UsdShadeConnectableAPIE, i64 16), ptr %0, align 8
  %8 = getelementptr inbounds nuw i8, ptr %3, i64 24
  %9 = load ptr, ptr %8, align 8
  %10 = ptrtoint ptr %9 to i64
  %11 = and i64 %10, 7
  %.not.i.i.i.i = icmp eq i64 %11, 0
  br i1 %.not.i.i.i.i, label %_ZN32pxrInternal_v0_24__pxrReserved__7TfTokenD2Ev.exit.i.i, label %12

12:                                               ; preds = %6
  %13 = and i64 %10, -8
  %14 = inttoptr i64 %13 to ptr
  %15 = atomicrmw sub ptr %14, i32 2 release, align 4
  br label %_ZN32pxrInternal_v0_24__pxrReserved__7TfTokenD2Ev.exit.i.i

_ZN32pxrInternal_v0_24__pxrReserved__7TfTokenD2Ev.exit.i.i: ; preds = %12, %6
  %16 = getelementptr inbounds nuw i8, ptr %3, i64 16
  %17 = load i32, ptr %16, align 8
  %.not.i.i1.i.i = icmp eq i32 %17, 0
  br i1 %.not.i.i1.i.i, label %_ZN32pxrInternal_v0_24__pxrReserved__7SdfPathD2Ev.exit.i.i, label %18

18:                                               ; preds = %_ZN32pxrInternal_v0_24__pxrReserved__7TfTokenD2Ev.exit.i.i
  %19 = and i32 %17, 255
  %20 = lshr i32 %17, 8
  %21 = zext nneg i32 %19 to i64
  %22 = getelementptr inbounds nuw [257 x ptr], ptr @_ZN32pxrInternal_v0_24__pxrReserved__8Sdf_PoolINS_15Sdf_PathPrimTagELj24ELj8ELj16384EE13_regionStartsE, i64 0, i64 %21
  %23 = load ptr, ptr %22, align 8
  %24 = mul nuw nsw i32 %20, 24
  %25 = zext nneg i32 %24 to i64
  %26 = getelementptr inbounds nuw i8, ptr %23, i64 %25
  %27 = getelementptr inbounds nuw i8, ptr %26, i64 8
  %28 = atomicrmw sub ptr %27, i32 1 seq_cst, align 4
  %29 = and i32 %28, 2147483647
  %30 = icmp eq i32 %29, 1
  br i1 %30, label %31, label %_ZN32pxrInternal_v0_24__pxrReserved__7SdfPathD2Ev.exit.i.i

31:                                               ; preds = %18
  invoke void @_ZNK32pxrInternal_v0_24__pxrReserved__12Sdf_PathNode8_DestroyEv(ptr noundef nonnull align 8 dereferenceable(16) %26)
          to label %_ZN32pxrInternal_v0_24__pxrReserved__7SdfPathD2Ev.exit.i.i unwind label %32

32:                                               ; preds = %31
  %33 = landingpad { ptr, i32 }
          catch ptr null
  %34 = extractvalue { ptr, i32 } %33, 0
  call void @__clang_call_terminate(ptr %34) #21
  unreachable

_ZN32pxrInternal_v0_24__pxrReserved__7SdfPathD2Ev.exit.i.i: ; preds = %31, %18, %_ZN32pxrInternal_v0_24__pxrReserved__7TfTokenD2Ev.exit.i.i
  %35 = getelementptr inbounds nuw i8, ptr %3, i64 8
  %36 = load ptr, ptr %35, align 8
  %.not.i.i.i.i.i = icmp eq ptr %36, null
  br i1 %.not.i.i.i.i.i, label %_ZN32pxrInternal_v0_24__pxrReserved__7UsdPrimD2Ev.exit, label %37

37:                                               ; preds = %_ZN32pxrInternal_v0_24__pxrReserved__7SdfPathD2Ev.exit.i.i
  %38 = getelementptr inbounds nuw i8, ptr %36, i64 48
  %39 = atomicrmw sub ptr %38, i64 1 release, align 8
  %.not1.i.i.i.i.i = icmp eq i64 %39, 1
  br i1 %.not1.i.i.i.i.i, label %40, label %_ZN32pxrInternal_v0_24__pxrReserved__7UsdPrimD2Ev.exit

40:                                               ; preds = %37
  call void @_ZN32pxrInternal_v0_24__pxrReserved__12Usd_PrimDataD1Ev(ptr noundef nonnull align 8 dereferenceable(64) %36) #19
  call void @_ZdlPvm(ptr noundef nonnull %36, i64 noundef 64) #20
  br label %_ZN32pxrInternal_v0_24__pxrReserved__7UsdPrimD2Ev.exit

_ZN32pxrInternal_v0_24__pxrReserved__7UsdPrimD2Ev.exit: ; preds = %_ZN32pxrInternal_v0_24__pxrReserved__7SdfPathD2Ev.exit.i.i, %37, %40
  ret void

41:                                               ; preds = %2
  %42 = landingpad { ptr, i32 }
          cleanup
  call void @_ZN32pxrInternal_v0_24__pxrReserved__7UsdPrimD2Ev(ptr noundef nonnull align 8 dereferenceable(32) %3) #19
  resume { ptr, i32 } %42
}